target datalayout = "e-m:e-p270:32:32-p271:32:32-p272:64:64-i64:64-i128:128-f80:128-n8:16:32:64-S128"
target triple = "x86_64-pc-linux-gnu"

%struct.PQArgBlock = type { i32, i32, %union.anon }
%union.anon = type { ptr }
%struct.pg_conn = type { ptr, ptr, ptr, ptr, ptr, ptr, ptr, ptr, ptr, ptr, ptr, ptr, ptr, ptr, ptr, ptr, ptr, ptr, ptr, ptr, ptr, ptr, ptr, ptr, ptr, ptr, ptr, ptr, ptr, ptr, ptr, ptr, ptr, ptr, ptr, ptr, ptr, ptr, ptr, ptr, ptr, ptr, ptr, i8, ptr, i32, %struct.PGNoticeHooks, ptr, i32, i32, i32, i32, i32, [6 x i8], i8, i8, i32, i8, i8, i32, i8, i32, ptr, ptr, i32, i32, ptr, ptr, ptr, ptr, ptr, i32, %struct.SockAddr, %struct.SockAddr, i32, i32, i8, i8, i8, i8, i8, i8, ptr, i8, i32, [1 x ptr], i8, i8, ptr, ptr, i32, i32, i32, i8, i8, i32, i32, ptr, i8, i64, ptr, i64, ptr, i32, i32, ptr, i32, i8, i32, i32, i32, i32, ptr, %struct.pg_prng_state, ptr, i32, i32, i32, i32, ptr, i32, i32, i32, i32, ptr, i32, ptr, i8, ptr, ptr, ptr, i32, i8, i8, i8, i8, i8, i8, i8, i8, %struct.PQExpBufferData, i32, %struct.PQExpBufferData }
%struct.PGNoticeHooks = type { ptr, ptr, ptr, ptr }
%struct.SockAddr = type { %struct.sockaddr_storage, i32 }
%struct.sockaddr_storage = type { i16, [118 x i8], i64 }
%struct.pg_prng_state = type { i64, i64 }
%struct.PQExpBufferData = type { ptr, i64, i64 }
%struct.pgLobjfuncs = type { i32, i32, i32, i32, i32, i32, i32, i32, i32, i32, i32, i32, i32 }

@.str = private unnamed_addr constant [36 x i8] c"cannot determine OID of function %s\00", align 1
@.str.1 = private unnamed_addr constant [12 x i8] c"lo_truncate\00", align 1
@.str.2 = private unnamed_addr constant [46 x i8] c"argument of lo_truncate exceeds integer range\00", align 1

; Function Attrs: nounwind uwtable
define i32 @lo_truncate(ptr noundef %0, i32 noundef %1, i64 noundef %2) #0 {
  %4 = alloca i32, align 4
  %5 = alloca ptr, align 8
  %6 = alloca i32, align 4
  %7 = alloca i64, align 8
  %8 = alloca [2 x %struct.PQArgBlock], align 16
  %9 = alloca ptr, align 8
  %10 = alloca i32, align 4
  %11 = alloca i32, align 4
  %12 = alloca i32, align 4
  store ptr %0, ptr %5, align 8
  store i32 %1, ptr %6, align 4
  store i64 %2, ptr %7, align 8
  call void @llvm.lifetime.start.p0(i64 32, ptr %8) #10
  call void @llvm.lifetime.start.p0(i64 8, ptr %9) #10
  call void @llvm.lifetime.start.p0(i64 4, ptr %10) #10
  call void @llvm.lifetime.start.p0(i64 4, ptr %11) #10
  %13 = load ptr, ptr %5, align 8
  %14 = call i32 @lo_initialize(ptr noundef %13)
  %15 = icmp slt i32 %14, 0
  br i1 %15, label %16, label %17

16:                                               ; preds = %3
  store i32 -1, ptr %4, align 4
  store i32 1, ptr %12, align 4
  br label %63

17:                                               ; preds = %3
  %18 = load ptr, ptr %5, align 8
  %19 = getelementptr inbounds nuw %struct.pg_conn, ptr %18, i32 0, i32 112
  %20 = load ptr, ptr %19, align 8
  %21 = getelementptr inbounds nuw %struct.pgLobjfuncs, ptr %20, i32 0, i32 9
  %22 = load i32, ptr %21, align 4
  %23 = icmp eq i32 %22, 0
  br i1 %23, label %24, label %26

24:                                               ; preds = %17
  %25 = load ptr, ptr %5, align 8
  call void (ptr, ptr, ...) @libpq_append_conn_error(ptr noundef %25, ptr noundef @.str, ptr noundef @.str.1)
  store i32 -1, ptr %4, align 4
  store i32 1, ptr %12, align 4
  br label %63

26:                                               ; preds = %17
  %27 = load i64, ptr %7, align 8
  %28 = icmp ugt i64 %27, 2147483647
  br i1 %28, label %29, label %31

29:                                               ; preds = %26
  %30 = load ptr, ptr %5, align 8
  call void (ptr, ptr, ...) @libpq_append_conn_error(ptr noundef %30, ptr noundef @.str.2)
  store i32 -1, ptr %4, align 4
  store i32 1, ptr %12, align 4
  br label %63

31:                                               ; preds = %26
  %32 = getelementptr inbounds [2 x %struct.PQArgBlock], ptr %8, i64 0, i64 0
  %33 = getelementptr inbounds nuw %struct.PQArgBlock, ptr %32, i32 0, i32 1
  store i32 1, ptr %33, align 4
  %34 = getelementptr inbounds [2 x %struct.PQArgBlock], ptr %8, i64 0, i64 0
  %35 = getelementptr inbounds nuw %struct.PQArgBlock, ptr %34, i32 0, i32 0
  store i32 4, ptr %35, align 16
  %36 = load i32, ptr %6, align 4
  %37 = getelementptr inbounds [2 x %struct.PQArgBlock], ptr %8, i64 0, i64 0
  %38 = getelementptr inbounds nuw %struct.PQArgBlock, ptr %37, i32 0, i32 2
  store i32 %36, ptr %38, align 8
  %39 = getelementptr inbounds [2 x %struct.PQArgBlock], ptr %8, i64 0, i64 1
  %40 = getelementptr inbounds nuw %struct.PQArgBlock, ptr %39, i32 0, i32 1
  store i32 1, ptr %40, align 4
  %41 = getelementptr inbounds [2 x %struct.PQArgBlock], ptr %8, i64 0, i64 1
  %42 = getelementptr inbounds nuw %struct.PQArgBlock, ptr %41, i32 0, i32 0
  store i32 4, ptr %42, align 16
  %43 = load i64, ptr %7, align 8
  %44 = trunc i64 %43 to i32
  %45 = getelementptr inbounds [2 x %struct.PQArgBlock], ptr %8, i64 0, i64 1
  %46 = getelementptr inbounds nuw %struct.PQArgBlock, ptr %45, i32 0, i32 2
  store i32 %44, ptr %46, align 8
  %47 = load ptr, ptr %5, align 8
  %48 = load ptr, ptr %5, align 8
  %49 = getelementptr inbounds nuw %struct.pg_conn, ptr %48, i32 0, i32 112
  %50 = load ptr, ptr %49, align 8
  %51 = getelementptr inbounds nuw %struct.pgLobjfuncs, ptr %50, i32 0, i32 9
  %52 = load i32, ptr %51, align 4
  %53 = getelementptr inbounds [2 x %struct.PQArgBlock], ptr %8, i64 0, i64 0
  %54 = call ptr @PQfn(ptr noundef %47, i32 noundef %52, ptr noundef %10, ptr noundef %11, i32 noundef 1, ptr noundef %53, i32 noundef 2)
  store ptr %54, ptr %9, align 8
  %55 = load ptr, ptr %9, align 8
  %56 = call i32 @PQresultStatus(ptr noundef %55)
  %57 = icmp eq i32 %56, 1
  br i1 %57, label %58, label %61

58:                                               ; preds = %31
  %59 = load ptr, ptr %9, align 8
  call void @PQclear(ptr noundef %59)
  %60 = load i32, ptr %10, align 4
  store i32 %60, ptr %4, align 4
  store i32 1, ptr %12, align 4
  br label %63

61:                                               ; preds = %31
  %62 = load ptr, ptr %9, align 8
  call void @PQclear(ptr noundef %62)
  store i32 -1, ptr %4, align 4
  store i32 1, ptr %12, align 4
  br label %63

63:                                               ; preds = %61, %58, %29, %24, %16
  call void @llvm.lifetime.end.p0(i64 4, ptr %11) #10
  call void @llvm.lifetime.end.p0(i64 4, ptr %10) #10
  call void @llvm.lifetime.end.p0(i64 8, ptr %9) #10
  call void @llvm.lifetime.end.p0(i64 32, ptr %8) #10
  %64 = load i32, ptr %4, align 4
  ret i32 %64
}