; Function Attrs: nounwind uwtable
define i32 @lo_truncate(ptr noundef %0, i32 noundef %1, i64 noundef %2) local_unnamed_addr #0 {
  %4 = alloca [2 x %struct.PQArgBlock], align 16
  %5 = alloca i32, align 4
  %6 = alloca i32, align 4
  call void @llvm.lifetime.start.p0(i64 32, ptr nonnull %4) #10
  call void @llvm.lifetime.start.p0(i64 4, ptr nonnull %5) #10
  call void @llvm.lifetime.start.p0(i64 4, ptr nonnull %6) #10
  %7 = tail call fastcc i32 @lo_initialize(ptr noundef %0)
  %8 = icmp slt i32 %7, 0
  br i1 %8, label %30, label %9

9:                                                ; preds = %3
  %10 = getelementptr inbounds nuw i8, ptr %0, i64 976
  %11 = load ptr, ptr %10, align 8
  %12 = getelementptr inbounds nuw i8, ptr %11, i64 36
  %13 = load i32, ptr %12, align 4
  %14 = icmp eq i32 %13, 0
  br i1 %14, label %15, label %16

15:                                               ; preds = %9
  tail call void (ptr, ptr, ...) @libpq_append_conn_error(ptr noundef nonnull %0, ptr noundef nonnull @.str, ptr noundef nonnull @.str.1) #10
  br label %30

16:                                               ; preds = %9
  %17 = icmp ugt i64 %2, 2147483647
  br i1 %17, label %18, label %19

18:                                               ; preds = %16
  tail call void (ptr, ptr, ...) @libpq_append_conn_error(ptr noundef nonnull %0, ptr noundef nonnull @.str.2) #10
  br label %30

19:                                               ; preds = %16
  %20 = getelementptr inbounds nuw i8, ptr %4, i64 4
  store i32 1, ptr %20, align 4
  store i32 4, ptr %4, align 16
  %21 = getelementptr inbounds nuw i8, ptr %4, i64 8
  store i32 %1, ptr %21, align 8
  %22 = getelementptr inbounds nuw i8, ptr %4, i64 16
  %23 = getelementptr inbounds nuw i8, ptr %4, i64 20
  store i32 1, ptr %23, align 4
  store i32 4, ptr %22, align 16
  %24 = trunc nuw nsw i64 %2 to i32
  %25 = getelementptr inbounds nuw i8, ptr %4, i64 24
  store i32 %24, ptr %25, align 8
  %26 = call ptr @PQfn(ptr noundef nonnull %0, i32 noundef %13, ptr noundef nonnull %5, ptr noundef nonnull %6, i32 noundef 1, ptr noundef nonnull %4, i32 noundef 2) #10
  %27 = call i32 @PQresultStatus(ptr noundef %26) #10
  %28 = icmp eq i32 %27, 1
  call void @PQclear(ptr noundef %26) #10
  %29 = load i32, ptr %5, align 4
  %spec.select = select i1 %28, i32 %29, i32 -1
  br label %30

30:                                               ; preds = %19, %3, %18, %15
  %.0 = phi i32 [ -1, %15 ], [ -1, %18 ], [ -1, %3 ], [ %spec.select, %19 ]
  call void @llvm.lifetime.end.p0(i64 4, ptr nonnull %6) #10
  call void @llvm.lifetime.end.p0(i64 4, ptr nonnull %5) #10
  call void @llvm.lifetime.end.p0(i64 32, ptr nonnull %4) #10
  ret i32 %.0
}